target datalayout = "e-m:e-p270:32:32-p271:32:32-p272:64:64-i64:64-i128:128-f80:128-n8:16:32:64-S128"
target triple = "x86_64-pc-linux-gnu"

%"class.OpenColorIO_v2_5dev::LogOpCPU" = type { %"class.OpenColorIO_v2_5dev::OpCPU" }
%"class.OpenColorIO_v2_5dev::OpCPU" = type { ptr }
%"class.OpenColorIO_v2_5dev::LogRenderer" = type <{ %"class.OpenColorIO_v2_5dev::LogOpCPU", float, [4 x i8] }>
%struct.__storeu_ps = type { <4 x float> }

; Function Attrs: alwaysinline mustprogress nounwind uwtable
define internal noundef <4 x float> @_ZL15_mm_cvtepi32_psDv2_x(<2 x i64> noundef %0) #12 {
  %2 = alloca <2 x i64>, align 16
  store <2 x i64> %0, ptr %2, align 16, !tbaa !129
  %3 = load <2 x i64>, ptr %2, align 16, !tbaa !129
  %4 = bitcast <2 x i64> %3 to <4 x i32>
  %5 = sitofp <4 x i32> %4 to <4 x float>
  ret <4 x float> %5
}

; Function Attrs: alwaysinline mustprogress nounwind uwtable
define internal noundef <2 x i64> @_ZL13_mm_sub_epi32Dv2_xS_(<2 x i64> noundef %0, <2 x i64> noundef %1) #12 {
  %3 = alloca <2 x i64>, align 16
  %4 = alloca <2 x i64>, align 16
  store <2 x i64> %0, ptr %3, align 16, !tbaa !129
  store <2 x i64> %1, ptr %4, align 16, !tbaa !129
  %5 = load <2 x i64>, ptr %3, align 16, !tbaa !129
  %6 = bitcast <2 x i64> %5 to <4 x i32>
  %7 = load <2 x i64>, ptr %4, align 16, !tbaa !129
  %8 = bitcast <2 x i64> %7 to <4 x i32>
  %9 = sub <4 x i32> %6, %8
  %10 = bitcast <4 x i32> %9 to <2 x i64>
  ret <2 x i64> %10
}

; Function Attrs: alwaysinline mustprogress nounwind uwtable
define internal noundef <2 x i64> @_ZL14_mm_srli_epi32Dv2_xi(<2 x i64> noundef %0, i32 noundef %1) #12 {
  %3 = alloca <2 x i64>, align 16
  %4 = alloca i32, align 4
  store <2 x i64> %0, ptr %3, align 16, !tbaa !129
  store i32 %1, ptr %4, align 4, !tbaa !141
  %5 = load <2 x i64>, ptr %3, align 16, !tbaa !129
  %6 = bitcast <2 x i64> %5 to <4 x i32>
  %7 = load i32, ptr %4, align 4, !tbaa !141
  %8 = call <4 x i32> @llvm.x86.sse2.psrli.d(<4 x i32> %6, i32 %7)
  %9 = bitcast <4 x i32> %8 to <2 x i64>
  ret <2 x i64> %9
}

; Function Attrs: alwaysinline mustprogress nounwind uwtable
define internal noundef <2 x i64> @_ZL13_mm_and_si128Dv2_xS_(<2 x i64> noundef %0, <2 x i64> noundef %1) #12 {
  %3 = alloca <2 x i64>, align 16
  %4 = alloca <2 x i64>, align 16
  store <2 x i64> %0, ptr %3, align 16, !tbaa !129
  store <2 x i64> %1, ptr %4, align 16, !tbaa !129
  %5 = load <2 x i64>, ptr %3, align 16, !tbaa !129
  %6 = load <2 x i64>, ptr %4, align 16, !tbaa !129
  %7 = and <2 x i64> %5, %6
  ret <2 x i64> %7
}

; Function Attrs: alwaysinline mustprogress nounwind uwtable
define internal noundef <2 x i64> @_ZL16_mm_castps_si128Dv4_f(<4 x float> noundef %0) #12 {
  %2 = alloca <4 x float>, align 16
  store <4 x float> %0, ptr %2, align 16, !tbaa !129
  %3 = load <4 x float>, ptr %2, align 16, !tbaa !129
  %4 = bitcast <4 x float> %3 to <2 x i64>
  ret <2 x i64> %4
}

; Function Attrs: alwaysinline mustprogress nounwind uwtable
define internal noundef <4 x float> @_ZL10_mm_add_psDv4_fS_(<4 x float> noundef %0, <4 x float> noundef %1) #12 {
  %3 = alloca <4 x float>, align 16
  %4 = alloca <4 x float>, align 16
  store <4 x float> %0, ptr %3, align 16, !tbaa !129
  store <4 x float> %1, ptr %4, align 16, !tbaa !129
  %5 = load <4 x float>, ptr %3, align 16, !tbaa !129
  %6 = load <4 x float>, ptr %4, align 16, !tbaa !129
  %7 = fadd <4 x float> %5, %6
  ret <4 x float> %7
}

; Function Attrs: alwaysinline mustprogress nounwind uwtable
define internal noundef <4 x float> @_ZL9_mm_or_psDv4_fS_(<4 x float> noundef %0, <4 x float> noundef %1) #12 {
  %3 = alloca <4 x float>, align 16
  %4 = alloca <4 x float>, align 16
  store <4 x float> %0, ptr %3, align 16, !tbaa !129
  store <4 x float> %1, ptr %4, align 16, !tbaa !129
  %5 = load <4 x float>, ptr %3, align 16, !tbaa !129
  %6 = bitcast <4 x float> %5 to <4 x i32>
  %7 = load <4 x float>, ptr %4, align 16, !tbaa !129
  %8 = bitcast <4 x float> %7 to <4 x i32>
  %9 = or <4 x i32> %6, %8
  %10 = bitcast <4 x i32> %9 to <4 x float>
  ret <4 x float> %10
}

; Function Attrs: alwaysinline mustprogress nounwind uwtable
define internal noundef <4 x float> @_ZL13_mm_andnot_psDv4_fS_(<4 x float> noundef %0, <4 x float> noundef %1) #12 {
  %3 = alloca <4 x float>, align 16
  %4 = alloca <4 x float>, align 16
  store <4 x float> %0, ptr %3, align 16, !tbaa !129
  store <4 x float> %1, ptr %4, align 16, !tbaa !129
  %5 = load <4 x float>, ptr %3, align 16, !tbaa !129
  %6 = bitcast <4 x float> %5 to <4 x i32>
  %7 = xor <4 x i32> %6, splat (i32 -1)
  %8 = load <4 x float>, ptr %4, align 16, !tbaa !129
  %9 = bitcast <4 x float> %8 to <4 x i32>
  %10 = and <4 x i32> %7, %9
  %11 = bitcast <4 x i32> %10 to <4 x float>
  ret <4 x float> %11
}

; Function Attrs: alwaysinline mustprogress nounwind uwtable
define internal noundef <4 x float> @_ZL16_mm_castsi128_psDv2_x(<2 x i64> noundef %0) #12 {
  %2 = alloca <2 x i64>, align 16
  store <2 x i64> %0, ptr %2, align 16, !tbaa !129
  %3 = load <2 x i64>, ptr %2, align 16, !tbaa !129
  %4 = bitcast <2 x i64> %3 to <4 x float>
  ret <4 x float> %4
}

; Function Attrs: alwaysinline mustprogress nounwind uwtable
define internal void @_ZL13_mm_storeu_psPfDv4_f(ptr noundef %0, <4 x float> noundef %1) #12 {
  %3 = alloca ptr, align 8
  %4 = alloca <4 x float>, align 16
  store ptr %0, ptr %3, align 8, !tbaa !47
  store <4 x float> %1, ptr %4, align 16, !tbaa !129
  %5 = load <4 x float>, ptr %4, align 16, !tbaa !129
  %6 = load ptr, ptr %3, align 8, !tbaa !47
  %7 = getelementptr inbounds nuw %struct.__storeu_ps, ptr %6, i32 0, i32 0
  store <4 x float> %5, ptr %7, align 1, !tbaa !129
  ret void
}

; Function Attrs: alwaysinline mustprogress nounwind uwtable
define internal noundef <4 x float> @_ZL10_mm_mul_psDv4_fS_(<4 x float> noundef %0, <4 x float> noundef %1) #12 {
  %3 = alloca <4 x float>, align 16
  %4 = alloca <4 x float>, align 16
  store <4 x float> %0, ptr %3, align 16, !tbaa !129
  store <4 x float> %1, ptr %4, align 16, !tbaa !129
  %5 = load <4 x float>, ptr %3, align 16, !tbaa !129
  %6 = load <4 x float>, ptr %4, align 16, !tbaa !129
  %7 = fmul <4 x float> %5, %6
  ret <4 x float> %7
}

; Function Attrs: inlinehint mustprogress uwtable
define linkonce_odr hidden noundef <4 x float> @_ZN19OpenColorIO_v2_5dev7sseLog2EDv4_f(<4 x float> noundef %0) #13 comdat {
  %2 = alloca <4 x float>, align 16
  %3 = alloca <4 x float>, align 16
  %4 = alloca <4 x float>, align 16
  %5 = alloca <2 x i64>, align 16
  store <4 x float> %0, ptr %2, align 16, !tbaa !129
  call void @llvm.lifetime.start.p0(i64 16, ptr %3) #3
  %6 = call noundef <4 x float> @_ZL16_mm_castsi128_psDv2_x(<2 x i64> noundef splat (i64 9187343241974906880))
  %7 = load <4 x float>, ptr %2, align 16, !tbaa !129
  %8 = call noundef <4 x float> @_ZL13_mm_andnot_psDv4_fS_(<4 x float> noundef %6, <4 x float> noundef %7)
  %9 = call noundef <4 x float> @_ZL9_mm_or_psDv4_fS_(<4 x float> noundef %8, <4 x float> noundef splat (float 1.000000e+00))
  store <4 x float> %9, ptr %3, align 16, !tbaa !129
  call void @llvm.lifetime.start.p0(i64 16, ptr %4) #3
  %10 = load <4 x float>, ptr %3, align 16, !tbaa !129
  %11 = call noundef <4 x float> @_ZL10_mm_mul_psDv4_fS_(<4 x float> noundef splat (float 0x3FA6F9ACA0000000), <4 x float> noundef %10)
  %12 = call noundef <4 x float> @_ZL10_mm_add_psDv4_fS_(<4 x float> noundef %11, <4 x float> noundef splat (float 0xBFDAA8FAE0000000))
  %13 = load <4 x float>, ptr %3, align 16, !tbaa !129
  %14 = call noundef <4 x float> @_ZL10_mm_mul_psDv4_fS_(<4 x float> noundef %12, <4 x float> noundef %13)
  %15 = call noundef <4 x float> @_ZL10_mm_add_psDv4_fS_(<4 x float> noundef %14, <4 x float> noundef splat (float 0x3FFA192F80000000))
  %16 = load <4 x float>, ptr %3, align 16, !tbaa !129
  %17 = call noundef <4 x float> @_ZL10_mm_mul_psDv4_fS_(<4 x float> noundef %15, <4 x float> noundef %16)
  %18 = call noundef <4 x float> @_ZL10_mm_add_psDv4_fS_(<4 x float> noundef %17, <4 x float> noundef splat (float 0xC00C680620000000))
  %19 = load <4 x float>, ptr %3, align 16, !tbaa !129
  %20 = call noundef <4 x float> @_ZL10_mm_mul_psDv4_fS_(<4 x float> noundef %18, <4 x float> noundef %19)
  %21 = call noundef <4 x float> @_ZL10_mm_add_psDv4_fS_(<4 x float> noundef %20, <4 x float> noundef splat (float 0x40145DE980000000))
  %22 = load <4 x float>, ptr %3, align 16, !tbaa !129
  %23 = call noundef <4 x float> @_ZL10_mm_mul_psDv4_fS_(<4 x float> noundef %21, <4 x float> noundef %22)
  %24 = call noundef <4 x float> @_ZL10_mm_add_psDv4_fS_(<4 x float> noundef %23, <4 x float> noundef splat (float 0xC006672540000000))
  store <4 x float> %24, ptr %4, align 16, !tbaa !129
  call void @llvm.lifetime.start.p0(i64 16, ptr %5) #3
  %25 = load <4 x float>, ptr %2, align 16, !tbaa !129
  %26 = call noundef <2 x i64> @_ZL16_mm_castps_si128Dv4_f(<4 x float> noundef %25)
  %27 = call noundef <2 x i64> @_ZL13_mm_and_si128Dv2_xS_(<2 x i64> noundef %26, <2 x i64> noundef splat (i64 9187343241974906880))
  %28 = call noundef <2 x i64> @_ZL14_mm_srli_epi32Dv2_xi(<2 x i64> noundef %27, i32 noundef 23)
  %29 = call noundef <2 x i64> @_ZL13_mm_sub_epi32Dv2_xS_(<2 x i64> noundef %28, <2 x i64> noundef splat (i64 545460846719))
  store <2 x i64> %29, ptr %5, align 16, !tbaa !129
  %30 = load <4 x float>, ptr %4, align 16, !tbaa !129
  %31 = load <2 x i64>, ptr %5, align 16, !tbaa !129
  %32 = call noundef <4 x float> @_ZL15_mm_cvtepi32_psDv2_x(<2 x i64> noundef %31)
  %33 = call noundef <4 x float> @_ZL10_mm_add_psDv4_fS_(<4 x float> noundef %30, <4 x float> noundef %32)
  store <4 x float> %33, ptr %4, align 16, !tbaa !129
  %34 = load <4 x float>, ptr %4, align 16, !tbaa !129
  call void @llvm.lifetime.end.p0(i64 16, ptr %5) #3
  call void @llvm.lifetime.end.p0(i64 16, ptr %4) #3
  call void @llvm.lifetime.end.p0(i64 16, ptr %3) #3
  ret <4 x float> %34
}

; Function Attrs: alwaysinline mustprogress nounwind uwtable
define internal noundef <4 x float> @_ZL10_mm_max_psDv4_fS_(<4 x float> noundef %0, <4 x float> noundef %1) #12 {
  %3 = alloca <4 x float>, align 16
  %4 = alloca <4 x float>, align 16
  store <4 x float> %0, ptr %3, align 16, !tbaa !129
  store <4 x float> %1, ptr %4, align 16, !tbaa !129
  %5 = load <4 x float>, ptr %3, align 16, !tbaa !129
  %6 = load <4 x float>, ptr %4, align 16, !tbaa !129
  %7 = call <4 x float> @llvm.x86.sse.max.ps(<4 x float> %5, <4 x float> %6)
  ret <4 x float> %7
}

; Function Attrs: alwaysinline mustprogress nounwind uwtable
define internal noundef <4 x float> @_ZL10_mm_set_psffff(float noundef %0, float noundef %1, float noundef %2, float noundef %3) #12 {
  %5 = alloca float, align 4
  %6 = alloca float, align 4
  %7 = alloca float, align 4
  %8 = alloca float, align 4
  %9 = alloca <4 x float>, align 16
  store float %0, ptr %5, align 4, !tbaa !14
  store float %1, ptr %6, align 4, !tbaa !14
  store float %2, ptr %7, align 4, !tbaa !14
  store float %3, ptr %8, align 4, !tbaa !14
  %10 = load float, ptr %8, align 4, !tbaa !14
  %11 = insertelement <4 x float> poison, float %10, i32 0
  %12 = load float, ptr %7, align 4, !tbaa !14
  %13 = insertelement <4 x float> %11, float %12, i32 1
  %14 = load float, ptr %6, align 4, !tbaa !14
  %15 = insertelement <4 x float> %13, float %14, i32 2
  %16 = load float, ptr %5, align 4, !tbaa !14
  %17 = insertelement <4 x float> %15, float %16, i32 3
  store <4 x float> %17, ptr %9, align 16, !tbaa !129
  %18 = load <4 x float>, ptr %9, align 16, !tbaa !129
  ret <4 x float> %18
}

; Function Attrs: alwaysinline mustprogress nounwind uwtable
define internal noundef <4 x float> @_ZL11_mm_set1_psf(float noundef %0) #12 {
  %2 = alloca float, align 4
  %3 = alloca <4 x float>, align 16
  store float %0, ptr %2, align 4, !tbaa !14
  %4 = load float, ptr %2, align 4, !tbaa !14
  %5 = insertelement <4 x float> poison, float %4, i32 0
  %6 = load float, ptr %2, align 4, !tbaa !14
  %7 = insertelement <4 x float> %5, float %6, i32 1
  %8 = load float, ptr %2, align 4, !tbaa !14
  %9 = insertelement <4 x float> %7, float %8, i32 2
  %10 = load float, ptr %2, align 4, !tbaa !14
  %11 = insertelement <4 x float> %9, float %10, i32 3
  store <4 x float> %11, ptr %3, align 16, !tbaa !129
  %12 = load <4 x float>, ptr %3, align 16, !tbaa !129
  ret <4 x float> %12
}

; Function Attrs: mustprogress uwtable
define hidden void @_ZNK19OpenColorIO_v2_5dev14LogRendererSSE5applyEPKvPvl(ptr noundef nonnull align 8 dereferenceable(12) %0, ptr noundef %1, ptr noundef %2, i64 noundef %3) unnamed_addr #11 align 2 {
  %5 = alloca ptr, align 8
  %6 = alloca ptr, align 8
  %7 = alloca ptr, align 8
  %8 = alloca i64, align 8
  %9 = alloca ptr, align 8
  %10 = alloca ptr, align 8
  %11 = alloca <4 x float>, align 16
  %12 = alloca <4 x float>, align 16
  %13 = alloca <4 x float>, align 16
  %14 = alloca i64, align 8
  %15 = alloca float, align 4
  store ptr %0, ptr %5, align 8, !tbaa !127
  store ptr %1, ptr %6, align 8, !tbaa !124
  store ptr %2, ptr %7, align 8, !tbaa !124
  store i64 %3, ptr %8, align 8, !tbaa !115
  %16 = load ptr, ptr %5, align 8
  call void @llvm.lifetime.start.p0(i64 8, ptr %9) #3
  %17 = load ptr, ptr %6, align 8, !tbaa !124
  store ptr %17, ptr %9, align 8, !tbaa !47
  call void @llvm.lifetime.start.p0(i64 8, ptr %10) #3
  %18 = load ptr, ptr %7, align 8, !tbaa !124
  store ptr %18, ptr %10, align 8, !tbaa !47
  call void @llvm.lifetime.start.p0(i64 16, ptr %11) #3
  %19 = call noundef <4 x float> @_ZL11_mm_set1_psf(float noundef 0x3810000000000000)
  store <4 x float> %19, ptr %11, align 16, !tbaa !129
  call void @llvm.lifetime.start.p0(i64 16, ptr %12) #3
  %20 = getelementptr inbounds nuw %"class.OpenColorIO_v2_5dev::LogRenderer", ptr %16, i32 0, i32 1
  %21 = load float, ptr %20, align 8, !tbaa !122
  %22 = call noundef <4 x float> @_ZL11_mm_set1_psf(float noundef %21)
  store <4 x float> %22, ptr %12, align 16, !tbaa !129
  call void @llvm.lifetime.start.p0(i64 16, ptr %13) #3
  call void @llvm.lifetime.start.p0(i64 8, ptr %14) #3
  store i64 0, ptr %14, align 8, !tbaa !115
  br label %23

23:                                               ; preds = %58, %4
  %24 = load i64, ptr %14, align 8, !tbaa !115
  %25 = load i64, ptr %8, align 8, !tbaa !115
  %26 = icmp slt i64 %24, %25
  br i1 %26, label %28, label %27

27:                                               ; preds = %23
  call void @llvm.lifetime.end.p0(i64 8, ptr %14) #3
  br label %61

28:                                               ; preds = %23
  %29 = load ptr, ptr %9, align 8, !tbaa !47
  %30 = getelementptr inbounds float, ptr %29, i64 2
  %31 = load float, ptr %30, align 4, !tbaa !14
  %32 = load ptr, ptr %9, align 8, !tbaa !47
  %33 = getelementptr inbounds float, ptr %32, i64 1
  %34 = load float, ptr %33, align 4, !tbaa !14
  %35 = load ptr, ptr %9, align 8, !tbaa !47
  %36 = getelementptr inbounds float, ptr %35, i64 0
  %37 = load float, ptr %36, align 4, !tbaa !14
  %38 = call noundef <4 x float> @_ZL10_mm_set_psffff(float noundef 0.000000e+00, float noundef %31, float noundef %34, float noundef %37)
  store <4 x float> %38, ptr %13, align 16, !tbaa !129
  %39 = load <4 x float>, ptr %13, align 16, !tbaa !129
  %40 = call noundef <4 x float> @_ZL10_mm_max_psDv4_fS_(<4 x float> noundef %39, <4 x float> noundef splat (float 0x3810000000000000))
  store <4 x float> %40, ptr %13, align 16, !tbaa !129
  %41 = load <4 x float>, ptr %13, align 16, !tbaa !129
  %42 = call noundef <4 x float> @_ZN19OpenColorIO_v2_5dev7sseLog2EDv4_f(<4 x float> noundef %41)
  store <4 x float> %42, ptr %13, align 16, !tbaa !129
  %43 = load <4 x float>, ptr %13, align 16, !tbaa !129
  %44 = load <4 x float>, ptr %12, align 16, !tbaa !129
  %45 = call noundef <4 x float> @_ZL10_mm_mul_psDv4_fS_(<4 x float> noundef %43, <4 x float> noundef %44)
  store <4 x float> %45, ptr %13, align 16, !tbaa !129
  call void @llvm.lifetime.start.p0(i64 4, ptr %15) #3
  %46 = load ptr, ptr %9, align 8, !tbaa !47
  %47 = getelementptr inbounds float, ptr %46, i64 3
  %48 = load float, ptr %47, align 4, !tbaa !14
  store float %48, ptr %15, align 4, !tbaa !14
  %49 = load ptr, ptr %10, align 8, !tbaa !47
  %50 = load <4 x float>, ptr %13, align 16, !tbaa !129
  call void @_ZL13_mm_storeu_psPfDv4_f(ptr noundef %49, <4 x float> noundef %50)
  %51 = load float, ptr %15, align 4, !tbaa !14
  %52 = load ptr, ptr %10, align 8, !tbaa !47
  %53 = getelementptr inbounds float, ptr %52, i64 3
  store float %51, ptr %53, align 4, !tbaa !14
  %54 = load ptr, ptr %9, align 8, !tbaa !47
  %55 = getelementptr inbounds float, ptr %54, i64 4
  store ptr %55, ptr %9, align 8, !tbaa !47
  %56 = load ptr, ptr %10, align 8, !tbaa !47
  %57 = getelementptr inbounds float, ptr %56, i64 4
  store ptr %57, ptr %10, align 8, !tbaa !47
  call void @llvm.lifetime.end.p0(i64 4, ptr %15) #3
  br label %58

58:                                               ; preds = %28
  %59 = load i64, ptr %14, align 8, !tbaa !115
  %60 = add nsw i64 %59, 1
  store i64 %60, ptr %14, align 8, !tbaa !115
  br label %23, !llvm.loop !130

61:                                               ; preds = %27
  call void @llvm.lifetime.end.p0(i64 16, ptr %13) #3
  call void @llvm.lifetime.end.p0(i64 16, ptr %12) #3
  call void @llvm.lifetime.end.p0(i64 16, ptr %11) #3
  call void @llvm.lifetime.end.p0(i64 8, ptr %10) #3
  call void @llvm.lifetime.end.p0(i64 8, ptr %9) #3
  ret void
}