; Function Attrs: mustprogress nofree norecurse nosync nounwind memory(argmem: readwrite) uwtable
define hidden void @_ZNK19OpenColorIO_v2_5dev14LogRendererSSE5applyEPKvPvl(ptr noundef nonnull readonly align 8 captures(none) dereferenceable(12) %0, ptr noundef readonly captures(none) %1, ptr noundef writeonly captures(none) %2, i64 noundef %3) unnamed_addr #10 align 2 {
  %5 = getelementptr inbounds nuw i8, ptr %0, i64 8
  %6 = load float, ptr %5, align 8, !tbaa !49
  %7 = insertelement <4 x float> poison, float %6, i64 0
  %8 = shufflevector <4 x float> %7, <4 x float> poison, <4 x i32> zeroinitializer
  %9 = icmp sgt i64 %3, 0
  br i1 %9, label %.lr.ph, label %._crit_edge

._crit_edge:                                      ; preds = %.lr.ph, %4
  ret void

.lr.ph:                                           ; preds = %4, %.lr.ph
  %.023 = phi ptr [ %42, %.lr.ph ], [ %1, %4 ]
  %.01922 = phi i64 [ %44, %.lr.ph ], [ 0, %4 ]
  %.02021 = phi ptr [ %43, %.lr.ph ], [ %2, %4 ]
  %10 = getelementptr inbounds nuw i8, ptr %.023, i64 8
  %11 = load float, ptr %10, align 4, !tbaa !111
  %12 = getelementptr inbounds nuw i8, ptr %.023, i64 4
  %13 = load float, ptr %12, align 4, !tbaa !111
  %14 = load float, ptr %.023, align 4, !tbaa !111
  %15 = insertelement <4 x float> <float poison, float poison, float poison, float 0.000000e+00>, float %14, i64 0
  %16 = insertelement <4 x float> %15, float %13, i64 1
  %17 = insertelement <4 x float> %16, float %11, i64 2
  %18 = tail call noundef <4 x float> @llvm.x86.sse.max.ps(<4 x float> %17, <4 x float> splat (float 0x3810000000000000))
  %19 = bitcast <4 x float> %18 to <4 x i32>
  %20 = and <4 x i32> %19, splat (i32 -2139095041)
  %21 = or disjoint <4 x i32> %20, splat (i32 1065353216)
  %22 = bitcast <4 x i32> %21 to <4 x float>
  %23 = fmul <4 x float> %22, splat (float 0x3FA6F9ACA0000000)
  %24 = fadd <4 x float> %23, splat (float 0xBFDAA8FAE0000000)
  %25 = fmul <4 x float> %24, %22
  %26 = fadd <4 x float> %25, splat (float 0x3FFA192F80000000)
  %27 = fmul <4 x float> %26, %22
  %28 = fadd <4 x float> %27, splat (float 0xC00C680620000000)
  %29 = fmul <4 x float> %28, %22
  %30 = fadd <4 x float> %29, splat (float 0x40145DE980000000)
  %31 = fmul <4 x float> %30, %22
  %32 = fadd <4 x float> %31, splat (float 0xC006672540000000)
  %33 = lshr <4 x i32> %19, splat (i32 23)
  %34 = and <4 x i32> %33, splat (i32 255)
  %35 = add nsw <4 x i32> %34, splat (i32 -127)
  %36 = sitofp <4 x i32> %35 to <4 x float>
  %37 = fadd <4 x float> %32, %36
  %38 = fmul <4 x float> %8, %37
  %39 = getelementptr inbounds nuw i8, ptr %.023, i64 12
  %40 = load float, ptr %39, align 4, !tbaa !111
  store <4 x float> %38, ptr %.02021, align 1, !tbaa !115
  %41 = getelementptr inbounds nuw i8, ptr %.02021, i64 12
  store float %40, ptr %41, align 4, !tbaa !111
  %42 = getelementptr inbounds nuw i8, ptr %.023, i64 16
  %43 = getelementptr inbounds nuw i8, ptr %.02021, i64 16
  %44 = add nuw nsw i64 %.01922, 1
  %exitcond.not = icmp eq i64 %44, %3
  br i1 %exitcond.not, label %._crit_edge, label %.lr.ph, !llvm.loop !116
}